target datalayout = "e-m:e-p270:32:32-p271:32:32-p272:64:64-i64:64-i128:128-f80:128-n8:16:32:64-S128"
target triple = "x86_64-pc-linux-gnu"

%struct.png_struct_def = type { [1 x %struct.__jmp_buf_tag], ptr, ptr, i64, ptr, ptr, ptr, ptr, ptr, ptr, ptr, ptr, i8, i8, i32, i32, i32, i32, %struct.z_stream_s, i32, i32, i32, i32, i64, i32, i32, i32, ptr, ptr, i64, i32, i32, ptr, i16, i32, i16, i8, i8, i8, i8, i8, i8, i8, i8, i8, i8, i8, i8, i8, i8, i16, i8, i32, %struct.png_color_16_struct, %struct.png_color_16_struct, i32, i32, ptr, ptr, ptr, ptr, ptr, ptr, %struct.png_color_8_struct, %struct.png_color_8_struct, ptr, %struct.png_color_16_struct, ptr, ptr, ptr, ptr, ptr, ptr, ptr, ptr, ptr, i32, i32, i64, i64, i64, i64, i32, i32, ptr, ptr, [29 x i8], i32, ptr, ptr, i32, i32, ptr, i8, i8, i16, i16, ptr, i32, i8, ptr, ptr, ptr, ptr, ptr, ptr, ptr, i8, i32, i32, i32, i64, %struct.png_unknown_chunk_t, i64, ptr, i64, i32, i32, ptr, [4 x ptr], %struct.png_colorspace }
%struct.__jmp_buf_tag = type { [8 x i64], i32, %struct.__sigset_t }
%struct.__sigset_t = type { [16 x i64] }
%struct.z_stream_s = type { ptr, i32, i64, ptr, i32, i64, ptr, ptr, ptr, ptr, ptr, i32, i64, i64 }
%struct.png_color_8_struct = type { i8, i8, i8, i8, i8 }
%struct.png_color_16_struct = type { i8, i16, i16, i16, i16 }
%struct.png_unknown_chunk_t = type { [5 x i8], ptr, i64, i8 }
%struct.png_colorspace = type { i32, %struct.png_xy, %struct.png_XYZ, i16, i16 }
%struct.png_xy = type { i32, i32, i32, i32, i32, i32, i32, i32 }
%struct.png_XYZ = type { i32, i32, i32, i32, i32, i32, i32, i32, i32 }

; Function Attrs: nounwind uwtable
define hidden i32 @png_crc_error(ptr noalias noundef %0) #0 {
  %2 = alloca i32, align 4
  %3 = alloca ptr, align 8
  %4 = alloca [4 x i8], align 1
  %5 = alloca i32, align 4
  %6 = alloca i32, align 4
  store ptr %0, ptr %3, align 8
  store i32 1, ptr %6, align 4
  %7 = load ptr, ptr %3, align 8
  %8 = getelementptr inbounds %struct.png_struct_def, ptr %7, i32 0, i32 26
  %9 = load i32, ptr %8, align 8
  %10 = lshr i32 %9, 29
  %11 = and i32 1, %10
  %12 = icmp ne i32 %11, 0
  br i1 %12, label %13, label %21

13:                                               ; preds = %1
  %14 = load ptr, ptr %3, align 8
  %15 = getelementptr inbounds %struct.png_struct_def, ptr %14, i32 0, i32 15
  %16 = load i32, ptr %15, align 8
  %17 = and i32 %16, 768
  %18 = icmp eq i32 %17, 768
  br i1 %18, label %19, label %20

19:                                               ; preds = %13
  store i32 0, ptr %6, align 4
  br label %20

20:                                               ; preds = %19, %13
  br label %29

21:                                               ; preds = %1
  %22 = load ptr, ptr %3, align 8
  %23 = getelementptr inbounds %struct.png_struct_def, ptr %22, i32 0, i32 15
  %24 = load i32, ptr %23, align 8
  %25 = and i32 %24, 2048
  %26 = icmp ne i32 %25, 0
  br i1 %26, label %27, label %28

27:                                               ; preds = %21
  store i32 0, ptr %6, align 4
  br label %28

28:                                               ; preds = %27, %21
  br label %29

29:                                               ; preds = %28, %20
  %30 = load ptr, ptr %3, align 8
  %31 = getelementptr inbounds %struct.png_struct_def, ptr %30, i32 0, i32 117
  store i32 129, ptr %31, align 4
  %32 = load ptr, ptr %3, align 8
  %33 = getelementptr inbounds [4 x i8], ptr %4, i64 0, i64 0
  call void @png_read_data(ptr noundef %32, ptr noundef %33, i64 noundef 4)
  %34 = load i32, ptr %6, align 4
  %35 = icmp ne i32 %34, 0
  br i1 %35, label %36, label %64

36:                                               ; preds = %29
  %37 = getelementptr inbounds [4 x i8], ptr %4, i64 0, i64 0
  %38 = load i8, ptr %37, align 1
  %39 = zext i8 %38 to i32
  %40 = shl i32 %39, 24
  %41 = getelementptr inbounds [4 x i8], ptr %4, i64 0, i64 0
  %42 = getelementptr inbounds i8, ptr %41, i64 1
  %43 = load i8, ptr %42, align 1
  %44 = zext i8 %43 to i32
  %45 = shl i32 %44, 16
  %46 = add i32 %40, %45
  %47 = getelementptr inbounds [4 x i8], ptr %4, i64 0, i64 0
  %48 = getelementptr inbounds i8, ptr %47, i64 2
  %49 = load i8, ptr %48, align 1
  %50 = zext i8 %49 to i32
  %51 = shl i32 %50, 8
  %52 = add i32 %46, %51
  %53 = getelementptr inbounds [4 x i8], ptr %4, i64 0, i64 0
  %54 = getelementptr inbounds i8, ptr %53, i64 3
  %55 = load i8, ptr %54, align 1
  %56 = zext i8 %55 to i32
  %57 = add i32 %52, %56
  store i32 %57, ptr %5, align 4
  %58 = load i32, ptr %5, align 4
  %59 = load ptr, ptr %3, align 8
  %60 = getelementptr inbounds %struct.png_struct_def, ptr %59, i32 0, i32 31
  %61 = load i32, ptr %60, align 4
  %62 = icmp ne i32 %58, %61
  %63 = zext i1 %62 to i32
  store i32 %63, ptr %2, align 4
  br label %65

64:                                               ; preds = %29
  store i32 0, ptr %2, align 4
  br label %65

65:                                               ; preds = %64, %36
  %66 = load i32, ptr %2, align 4
  ret i32 %66
}