; Function Attrs: nounwind uwtable
define hidden range(i32 0, 2) i32 @png_crc_error(ptr noalias noundef %0) local_unnamed_addr #0 {
  %2 = alloca [4 x i8], align 1
  %3 = getelementptr inbounds i8, ptr %0, i64 456
  %4 = load i32, ptr %3, align 8
  %5 = and i32 %4, 536870912
  %.not = icmp eq i32 %5, 0
  %6 = getelementptr inbounds i8, ptr %0, i64 296
  %7 = load i32, ptr %6, align 8
  %8 = getelementptr inbounds i8, ptr %0, i64 1028
  store i32 129, ptr %8, align 4
  call void @png_read_data(ptr noundef nonnull %0, ptr noundef nonnull %2, i64 noundef 4) #12
  br i1 %.not, label %12, label %9

9:                                                ; preds = %1
  %10 = and i32 %7, 768
  %11 = icmp eq i32 %10, 768
  br i1 %11, label %36, label %14

12:                                               ; preds = %1
  %13 = and i32 %7, 2048
  %.not9.not = icmp eq i32 %13, 0
  br i1 %.not9.not, label %14, label %36

14:                                               ; preds = %9, %12
  %15 = load i8, ptr %2, align 1
  %16 = zext i8 %15 to i32
  %17 = shl nuw i32 %16, 24
  %18 = getelementptr inbounds i8, ptr %2, i64 1
  %19 = load i8, ptr %18, align 1
  %20 = zext i8 %19 to i32
  %21 = shl nuw nsw i32 %20, 16
  %22 = or disjoint i32 %21, %17
  %23 = getelementptr inbounds i8, ptr %2, i64 2
  %24 = load i8, ptr %23, align 1
  %25 = zext i8 %24 to i32
  %26 = shl nuw nsw i32 %25, 8
  %27 = or disjoint i32 %22, %26
  %28 = getelementptr inbounds i8, ptr %2, i64 3
  %29 = load i8, ptr %28, align 1
  %30 = zext i8 %29 to i32
  %31 = or disjoint i32 %27, %30
  %32 = getelementptr inbounds i8, ptr %0, i64 492
  %33 = load i32, ptr %32, align 4
  %34 = icmp ne i32 %31, %33
  %35 = zext i1 %34 to i32
  br label %36

36:                                               ; preds = %9, %12, %14
  %.08 = phi i32 [ %35, %14 ], [ 0, %12 ], [ 0, %9 ]
  ret i32 %.08
}